target datalayout = "e-m:e-p270:32:32-p271:32:32-p272:64:64-i64:64-i128:128-f80:128-n8:16:32:64-S128"
target triple = "x86_64-pc-linux-gnu"

%struct.H5P_libclass_t = type { ptr, i32, ptr, ptr, ptr, ptr, ptr, ptr, ptr, ptr, ptr, ptr, ptr }
%struct.H5VL_loc_params_t = type { i32, i32, %union.anon }
%union.anon = type { %struct.H5VL_loc_by_idx }
%struct.H5VL_loc_by_idx = type { ptr, i32, i32, i64, i64 }
%struct.H5VL_loc_by_name = type { ptr, i64 }
%struct.H5VL_optional_args_t = type { i32, ptr }
%union.H5VL_native_object_optional_args_t = type { %struct.H5VL_native_object_get_comment_t }
%struct.H5VL_native_object_get_comment_t = type { i64, ptr, ptr }

@H5_libinit_g = external global i8, align 1
@H5_libterm_g = external global i8, align 1
@.str = private unnamed_addr constant [97 x i8] c"generated/home/dtcxzyw/WorkSpace/Projects/compilers/llvm-opt-benchmark/bench/hdf5/hdf5/src/H5O.c\00", align 1
@H5E_FUNC_g = external global i64, align 8
@H5E_CANTINIT_g = external global i64, align 8
@.str.1 = private unnamed_addr constant [30 x i8] c"library initialization failed\00", align 1
@H5E_CANTSET_g = external global i64, align 8
@.str.2 = private unnamed_addr constant [22 x i8] c"can't set API context\00", align 1
@H5E_OHDR_g = external global i64, align 8
@H5E_ARGS_g = external global i64, align 8
@H5E_BADVALUE_g = external global i64, align 8
@H5E_BADTYPE_g = external global i64, align 8
@.str.21 = private unnamed_addr constant [28 x i8] c"invalid location identifier\00", align 1
@H5P_LST_DATASET_XFER_ID_g = external global i64, align 8
@H5P_CLS_LACC = external constant [1 x %struct.H5P_libclass_t], align 16
@.str.44 = private unnamed_addr constant [36 x i8] c"can't set access property list info\00", align 1
@H5E_CANTGET_g = external global i64, align 8
@.str.67 = private unnamed_addr constant [8 x i8] c"no name\00", align 1
@__func__.H5Oget_comment_by_name = private unnamed_addr constant [23 x i8] c"H5Oget_comment_by_name\00", align 1
@.str.70 = private unnamed_addr constant [35 x i8] c"can't get comment for object: '%s'\00", align 1

; Function Attrs: nounwind uwtable
define i64 @H5Oget_comment_by_name(i64 noundef %0, ptr noundef %1, ptr noundef %2, i64 noundef %3, i64 noundef %4) #0 {
  %6 = alloca i64, align 8
  %7 = alloca ptr, align 8
  %8 = alloca ptr, align 8
  %9 = alloca i64, align 8
  %10 = alloca i64, align 8
  %11 = alloca ptr, align 8
  %12 = alloca %struct.H5VL_optional_args_t, align 8
  %13 = alloca %union.H5VL_native_object_optional_args_t, align 8
  %14 = alloca %struct.H5VL_loc_params_t, align 8
  %15 = alloca i64, align 8
  %16 = alloca i64, align 8
  %17 = alloca i8, align 1
  %18 = alloca i8, align 1
  store i64 %0, ptr %6, align 8
  store ptr %1, ptr %7, align 8
  store ptr %2, ptr %8, align 8
  store i64 %3, ptr %9, align 8
  store i64 %4, ptr %10, align 8
  store i64 0, ptr %15, align 8
  store i64 -1, ptr %16, align 8
  store i8 0, ptr %17, align 1
  store i8 0, ptr %18, align 1
  %19 = load i8, ptr @H5_libinit_g, align 1
  %20 = trunc i8 %19 to i1
  br i1 %20, label %25, label %21

21:                                               ; preds = %5
  %22 = load i8, ptr @H5_libterm_g, align 1
  %23 = trunc i8 %22 to i1
  %24 = xor i1 %23, true
  br label %25

25:                                               ; preds = %21, %5
  %26 = phi i1 [ false, %5 ], [ %24, %21 ]
  %27 = xor i1 %26, true
  %28 = xor i1 %27, true
  %29 = zext i1 %28 to i32
  %30 = sext i32 %29 to i64
  %31 = icmp ne i64 %30, 0
  br i1 %31, label %32, label %56

32:                                               ; preds = %25
  %33 = call i32 @H5_init_library()
  %34 = icmp slt i32 %33, 0
  %35 = xor i1 %34, true
  %36 = xor i1 %35, true
  %37 = zext i1 %36 to i32
  %38 = sext i32 %37 to i64
  %39 = icmp ne i64 %38, 0
  br i1 %39, label %40, label %55

40:                                               ; preds = %32
  br label %41

41:                                               ; preds = %40
  br label %42

42:                                               ; preds = %41
  br label %43

43:                                               ; preds = %42
  %44 = load i64, ptr @H5E_FUNC_g, align 8
  %45 = load i64, ptr @H5E_CANTINIT_g, align 8
  %46 = call i32 (ptr, ptr, i32, i64, i64, ptr, ...) @H5E_printf_stack(ptr noundef @.str, ptr noundef @__func__.H5Oget_comment_by_name, i32 noundef 1628, i64 noundef %44, i64 noundef %45, ptr noundef @.str.1)
  br label %47

47:                                               ; preds = %43
  store i8 1, ptr %18, align 1
  %48 = load i8, ptr %18, align 1
  %49 = trunc i8 %48 to i1
  %50 = zext i1 %49 to i8
  store i8 %50, ptr %18, align 1
  br label %51

51:                                               ; preds = %47
  br label %52

52:                                               ; preds = %51
  store i64 -1, ptr %16, align 8
  br label %181

53:                                               ; No predecessors!
  br label %54

54:                                               ; preds = %53
  br label %55

55:                                               ; preds = %54, %32
  br label %56

56:                                               ; preds = %55, %25
  %57 = call i32 @H5CX_push()
  %58 = icmp slt i32 %57, 0
  %59 = xor i1 %58, true
  %60 = xor i1 %59, true
  %61 = zext i1 %60 to i32
  %62 = sext i32 %61 to i64
  %63 = icmp ne i64 %62, 0
  br i1 %63, label %64, label %79

64:                                               ; preds = %56
  br label %65

65:                                               ; preds = %64
  br label %66

66:                                               ; preds = %65
  br label %67

67:                                               ; preds = %66
  %68 = load i64, ptr @H5E_FUNC_g, align 8
  %69 = load i64, ptr @H5E_CANTSET_g, align 8
  %70 = call i32 (ptr, ptr, i32, i64, i64, ptr, ...) @H5E_printf_stack(ptr noundef @.str, ptr noundef @__func__.H5Oget_comment_by_name, i32 noundef 1628, i64 noundef %68, i64 noundef %69, ptr noundef @.str.2)
  br label %71

71:                                               ; preds = %67
  store i8 1, ptr %18, align 1
  %72 = load i8, ptr %18, align 1
  %73 = trunc i8 %72 to i1
  %74 = zext i1 %73 to i8
  store i8 %74, ptr %18, align 1
  br label %75

75:                                               ; preds = %71
  br label %76

76:                                               ; preds = %75
  store i64 -1, ptr %16, align 8
  br label %181

77:                                               ; No predecessors!
  br label %78

78:                                               ; preds = %77
  br label %80

79:                                               ; preds = %56
  store i8 1, ptr %17, align 1
  br label %80

80:                                               ; preds = %79, %78
  %81 = call i32 @H5E_clear_stack()
  %82 = load ptr, ptr %7, align 8
  %83 = icmp ne ptr %82, null
  br i1 %83, label %84, label %88

84:                                               ; preds = %80
  %85 = load ptr, ptr %7, align 8
  %86 = load i8, ptr %85, align 1
  %87 = icmp ne i8 %86, 0
  br i1 %87, label %103, label %88

88:                                               ; preds = %84, %80
  br label %89

89:                                               ; preds = %88
  br label %90

90:                                               ; preds = %89
  br label %91

91:                                               ; preds = %90
  %92 = load i64, ptr @H5E_ARGS_g, align 8
  %93 = load i64, ptr @H5E_BADVALUE_g, align 8
  %94 = call i32 (ptr, ptr, i32, i64, i64, ptr, ...) @H5E_printf_stack(ptr noundef @.str, ptr noundef @__func__.H5Oget_comment_by_name, i32 noundef 1632, i64 noundef %92, i64 noundef %93, ptr noundef @.str.67)
  br label %95

95:                                               ; preds = %91
  store i8 1, ptr %18, align 1
  %96 = load i8, ptr %18, align 1
  %97 = trunc i8 %96 to i1
  %98 = zext i1 %97 to i8
  store i8 %98, ptr %18, align 1
  br label %99

99:                                               ; preds = %95
  br label %100

100:                                              ; preds = %99
  store i64 -1, ptr %16, align 8
  br label %181

101:                                              ; No predecessors!
  br label %102

102:                                              ; preds = %101
  br label %103

103:                                              ; preds = %102, %84
  %104 = load i64, ptr %6, align 8
  %105 = call i32 @H5CX_set_apl(ptr noundef %10, ptr noundef @H5P_CLS_LACC, i64 noundef %104, i1 noundef zeroext false)
  %106 = icmp slt i32 %105, 0
  br i1 %106, label %107, label %122

107:                                              ; preds = %103
  br label %108

108:                                              ; preds = %107
  br label %109

109:                                              ; preds = %108
  br label %110

110:                                              ; preds = %109
  %111 = load i64, ptr @H5E_OHDR_g, align 8
  %112 = load i64, ptr @H5E_CANTSET_g, align 8
  %113 = call i32 (ptr, ptr, i32, i64, i64, ptr, ...) @H5E_printf_stack(ptr noundef @.str, ptr noundef @__func__.H5Oget_comment_by_name, i32 noundef 1636, i64 noundef %111, i64 noundef %112, ptr noundef @.str.44)
  br label %114

114:                                              ; preds = %110
  store i8 1, ptr %18, align 1
  %115 = load i8, ptr %18, align 1
  %116 = trunc i8 %115 to i1
  %117 = zext i1 %116 to i8
  store i8 %117, ptr %18, align 1
  br label %118

118:                                              ; preds = %114
  br label %119

119:                                              ; preds = %118
  store i64 -1, ptr %16, align 8
  br label %181

120:                                              ; No predecessors!
  br label %121

121:                                              ; preds = %120
  br label %122

122:                                              ; preds = %121, %103
  %123 = getelementptr inbounds %struct.H5VL_loc_params_t, ptr %14, i32 0, i32 1
  store i32 1, ptr %123, align 4
  %124 = load ptr, ptr %7, align 8
  %125 = getelementptr inbounds %struct.H5VL_loc_params_t, ptr %14, i32 0, i32 2
  %126 = getelementptr inbounds %struct.H5VL_loc_by_name, ptr %125, i32 0, i32 0
  store ptr %124, ptr %126, align 8
  %127 = load i64, ptr %10, align 8
  %128 = getelementptr inbounds %struct.H5VL_loc_params_t, ptr %14, i32 0, i32 2
  %129 = getelementptr inbounds %struct.H5VL_loc_by_name, ptr %128, i32 0, i32 1
  store i64 %127, ptr %129, align 8
  %130 = load i64, ptr %6, align 8
  %131 = call i32 @H5I_get_type(i64 noundef %130)
  %132 = getelementptr inbounds %struct.H5VL_loc_params_t, ptr %14, i32 0, i32 0
  store i32 %131, ptr %132, align 8
  %133 = load i64, ptr %6, align 8
  %134 = call ptr @H5VL_vol_object(i64 noundef %133)
  store ptr %134, ptr %11, align 8
  %135 = icmp eq ptr null, %134
  br i1 %135, label %136, label %151

136:                                              ; preds = %122
  br label %137

137:                                              ; preds = %136
  br label %138

138:                                              ; preds = %137
  br label %139

139:                                              ; preds = %138
  %140 = load i64, ptr @H5E_ARGS_g, align 8
  %141 = load i64, ptr @H5E_BADTYPE_g, align 8
  %142 = call i32 (ptr, ptr, i32, i64, i64, ptr, ...) @H5E_printf_stack(ptr noundef @.str, ptr noundef @__func__.H5Oget_comment_by_name, i32 noundef 1646, i64 noundef %140, i64 noundef %141, ptr noundef @.str.21)
  br label %143

143:                                              ; preds = %139
  store i8 1, ptr %18, align 1
  %144 = load i8, ptr %18, align 1
  %145 = trunc i8 %144 to i1
  %146 = zext i1 %145 to i8
  store i8 %146, ptr %18, align 1
  br label %147

147:                                              ; preds = %143
  br label %148

148:                                              ; preds = %147
  store i64 -1, ptr %16, align 8
  br label %181

149:                                              ; No predecessors!
  br label %150

150:                                              ; preds = %149
  br label %151

151:                                              ; preds = %150, %122
  %152 = load ptr, ptr %8, align 8
  %153 = getelementptr inbounds %struct.H5VL_native_object_get_comment_t, ptr %13, i32 0, i32 1
  store ptr %152, ptr %153, align 8
  %154 = load i64, ptr %9, align 8
  %155 = getelementptr inbounds %struct.H5VL_native_object_get_comment_t, ptr %13, i32 0, i32 0
  store i64 %154, ptr %155, align 8
  %156 = getelementptr inbounds %struct.H5VL_native_object_get_comment_t, ptr %13, i32 0, i32 2
  store ptr %15, ptr %156, align 8
  %157 = getelementptr inbounds %struct.H5VL_optional_args_t, ptr %12, i32 0, i32 0
  store i32 0, ptr %157, align 8
  %158 = getelementptr inbounds %struct.H5VL_optional_args_t, ptr %12, i32 0, i32 1
  store ptr %13, ptr %158, align 8
  %159 = load ptr, ptr %11, align 8
  %160 = load i64, ptr @H5P_LST_DATASET_XFER_ID_g, align 8
  %161 = call i32 @H5VL_object_optional(ptr noundef %159, ptr noundef %14, ptr noundef %12, i64 noundef %160, ptr noundef null)
  %162 = icmp slt i32 %161, 0
  br i1 %162, label %163, label %179

163:                                              ; preds = %151
  br label %164

164:                                              ; preds = %163
  br label %165

165:                                              ; preds = %164
  br label %166

166:                                              ; preds = %165
  %167 = load i64, ptr @H5E_OHDR_g, align 8
  %168 = load i64, ptr @H5E_CANTGET_g, align 8
  %169 = load ptr, ptr %7, align 8
  %170 = call i32 (ptr, ptr, i32, i64, i64, ptr, ...) @H5E_printf_stack(ptr noundef @.str, ptr noundef @__func__.H5Oget_comment_by_name, i32 noundef 1658, i64 noundef %167, i64 noundef %168, ptr noundef @.str.70, ptr noundef %169)
  br label %171

171:                                              ; preds = %166
  store i8 1, ptr %18, align 1
  %172 = load i8, ptr %18, align 1
  %173 = trunc i8 %172 to i1
  %174 = zext i1 %173 to i8
  store i8 %174, ptr %18, align 1
  br label %175

175:                                              ; preds = %171
  br label %176

176:                                              ; preds = %175
  store i64 -1, ptr %16, align 8
  br label %181

177:                                              ; No predecessors!
  br label %178

178:                                              ; preds = %177
  br label %179

179:                                              ; preds = %178, %151
  %180 = load i64, ptr %15, align 8
  store i64 %180, ptr %16, align 8
  br label %181

181:                                              ; preds = %179, %176, %148, %119, %100, %76, %52
  %182 = load i8, ptr %17, align 1
  %183 = trunc i8 %182 to i1
  %184 = xor i1 %183, true
  %185 = xor i1 %184, true
  %186 = zext i1 %185 to i32
  %187 = sext i32 %186 to i64
  %188 = icmp ne i64 %187, 0
  br i1 %188, label %189, label %191

189:                                              ; preds = %181
  %190 = call i32 @H5CX_pop(i1 noundef zeroext true)
  store i8 0, ptr %17, align 1
  br label %191

191:                                              ; preds = %189, %181
  %192 = load i8, ptr %18, align 1
  %193 = trunc i8 %192 to i1
  %194 = xor i1 %193, true
  %195 = xor i1 %194, true
  %196 = zext i1 %195 to i32
  %197 = sext i32 %196 to i64
  %198 = icmp ne i64 %197, 0
  br i1 %198, label %199, label %201

199:                                              ; preds = %191
  %200 = call i32 @H5E_dump_api_stack()
  br label %201

201:                                              ; preds = %199, %191
  %202 = load i64, ptr %16, align 8
  ret i64 %202
}