; Function Attrs: nounwind uwtable
define i64 @H5Oget_comment_by_name(i64 noundef %0, ptr noundef %1, ptr noundef %2, i64 noundef %3, i64 noundef %4) local_unnamed_addr #0 {
  %6 = alloca i64, align 8
  %7 = alloca %struct.H5VL_optional_args_t, align 8
  %8 = alloca %union.H5VL_native_object_optional_args_t, align 8
  %9 = alloca %struct.H5VL_loc_params_t, align 8
  %10 = alloca i64, align 8
  store i64 %4, ptr %6, align 8
  store i64 0, ptr %10, align 8
  %11 = load i8, ptr @H5_libinit_g, align 1
  %12 = trunc i8 %11 to i1
  %13 = load i8, ptr @H5_libterm_g, align 1
  %14 = trunc i8 %13 to i1
  %15 = select i1 %12, i1 true, i1 %14
  br i1 %15, label %23, label %16

16:                                               ; preds = %5
  %17 = tail call i32 @H5_init_library() #4
  %18 = icmp slt i32 %17, 0
  br i1 %18, label %19, label %23

19:                                               ; preds = %16
  %20 = load i64, ptr @H5E_FUNC_g, align 8
  %21 = load i64, ptr @H5E_CANTINIT_g, align 8
  %22 = tail call i32 (ptr, ptr, i32, i64, i64, ptr, ...) @H5E_printf_stack(ptr noundef nonnull @.str, ptr noundef nonnull @__func__.H5Oget_comment_by_name, i32 noundef 1628, i64 noundef %20, i64 noundef %21, ptr noundef nonnull @.str.1) #4
  br label %.thread31

23:                                               ; preds = %16, %5
  %24 = tail call i32 @H5CX_push() #4
  %25 = icmp slt i32 %24, 0
  br i1 %25, label %26, label %30

26:                                               ; preds = %23
  %27 = load i64, ptr @H5E_FUNC_g, align 8
  %28 = load i64, ptr @H5E_CANTSET_g, align 8
  %29 = tail call i32 (ptr, ptr, i32, i64, i64, ptr, ...) @H5E_printf_stack(ptr noundef nonnull @.str, ptr noundef nonnull @__func__.H5Oget_comment_by_name, i32 noundef 1628, i64 noundef %27, i64 noundef %28, ptr noundef nonnull @.str.2) #4
  br label %.thread31

30:                                               ; preds = %23
  %31 = tail call i32 @H5E_clear_stack() #4
  %.not = icmp eq ptr %1, null
  br i1 %.not, label %34, label %32

32:                                               ; preds = %30
  %33 = load i8, ptr %1, align 1
  %.not22 = icmp eq i8 %33, 0
  br i1 %.not22, label %34, label %38

34:                                               ; preds = %30, %32
  %35 = load i64, ptr @H5E_ARGS_g, align 8
  %36 = load i64, ptr @H5E_BADVALUE_g, align 8
  %37 = tail call i32 (ptr, ptr, i32, i64, i64, ptr, ...) @H5E_printf_stack(ptr noundef nonnull @.str, ptr noundef nonnull @__func__.H5Oget_comment_by_name, i32 noundef 1632, i64 noundef %35, i64 noundef %36, ptr noundef nonnull @.str.67) #4
  br label %.thread37

38:                                               ; preds = %32
  %39 = call i32 @H5CX_set_apl(ptr noundef nonnull %6, ptr noundef nonnull @H5P_CLS_LACC, i64 noundef %0, i1 noundef zeroext false) #4
  %40 = icmp slt i32 %39, 0
  br i1 %40, label %41, label %45

41:                                               ; preds = %38
  %42 = load i64, ptr @H5E_OHDR_g, align 8
  %43 = load i64, ptr @H5E_CANTSET_g, align 8
  %44 = call i32 (ptr, ptr, i32, i64, i64, ptr, ...) @H5E_printf_stack(ptr noundef nonnull @.str, ptr noundef nonnull @__func__.H5Oget_comment_by_name, i32 noundef 1636, i64 noundef %42, i64 noundef %43, ptr noundef nonnull @.str.44) #4
  br label %.thread37

45:                                               ; preds = %38
  %46 = getelementptr inbounds i8, ptr %9, i64 4
  store i32 1, ptr %46, align 4
  %47 = getelementptr inbounds i8, ptr %9, i64 8
  store ptr %1, ptr %47, align 8
  %48 = load i64, ptr %6, align 8
  %49 = getelementptr inbounds i8, ptr %9, i64 16
  store i64 %48, ptr %49, align 8
  %50 = call i32 @H5I_get_type(i64 noundef %0) #4
  store i32 %50, ptr %9, align 8
  %51 = call ptr @H5VL_vol_object(i64 noundef %0) #4
  %52 = icmp eq ptr %51, null
  br i1 %52, label %53, label %57

53:                                               ; preds = %45
  %54 = load i64, ptr @H5E_ARGS_g, align 8
  %55 = load i64, ptr @H5E_BADTYPE_g, align 8
  %56 = call i32 (ptr, ptr, i32, i64, i64, ptr, ...) @H5E_printf_stack(ptr noundef nonnull @.str, ptr noundef nonnull @__func__.H5Oget_comment_by_name, i32 noundef 1646, i64 noundef %54, i64 noundef %55, ptr noundef nonnull @.str.21) #4
  br label %.thread37

57:                                               ; preds = %45
  %58 = getelementptr inbounds i8, ptr %8, i64 8
  store ptr %2, ptr %58, align 8
  store i64 %3, ptr %8, align 8
  %59 = getelementptr inbounds i8, ptr %8, i64 16
  store ptr %10, ptr %59, align 8
  store i32 0, ptr %7, align 8
  %60 = getelementptr inbounds i8, ptr %7, i64 8
  store ptr %8, ptr %60, align 8
  %61 = load i64, ptr @H5P_LST_DATASET_XFER_ID_g, align 8
  %62 = call i32 @H5VL_object_optional(ptr noundef nonnull %51, ptr noundef nonnull %9, ptr noundef nonnull %7, i64 noundef %61, ptr noundef null) #4
  %63 = icmp slt i32 %62, 0
  br i1 %63, label %64, label %69

64:                                               ; preds = %57
  %65 = load i64, ptr @H5E_OHDR_g, align 8
  %66 = load i64, ptr @H5E_CANTGET_g, align 8
  %67 = call i32 (ptr, ptr, i32, i64, i64, ptr, ...) @H5E_printf_stack(ptr noundef nonnull @.str, ptr noundef nonnull @__func__.H5Oget_comment_by_name, i32 noundef 1658, i64 noundef %65, i64 noundef %66, ptr noundef nonnull @.str.70, ptr noundef nonnull %1) #4
  br label %.thread37

.thread37:                                        ; preds = %34, %64, %53, %41
  %68 = call i32 @H5CX_pop(i1 noundef zeroext true) #4
  br label %.thread31

69:                                               ; preds = %57
  %70 = load i64, ptr %10, align 8
  %71 = call i32 @H5CX_pop(i1 noundef zeroext true) #4
  br label %73

.thread31:                                        ; preds = %26, %19, %.thread37
  %72 = call i32 @H5E_dump_api_stack() #4
  br label %73

73:                                               ; preds = %69, %.thread31
  %.0192634 = phi i64 [ -1, %.thread31 ], [ %70, %69 ]
  ret i64 %.0192634
}